target datalayout = "e-m:e-p270:32:32-p271:32:32-p272:64:64-i64:64-i128:128-f80:128-n8:16:32:64-S128"
target triple = "x86_64-pc-linux-gnu"

%struct.lxb_html_tree = type { ptr, ptr, ptr, ptr, ptr, ptr, ptr, %struct.lxb_html_tree_pending_table_t, ptr, i8, i8, i8, i8, i8, i8, ptr, ptr, ptr, i32, i64 }
%struct.lxb_html_tree_pending_table_t = type { ptr, i8 }
%struct.lxb_dom_node = type { %struct.lxb_dom_event_target, i64, i64, i64, ptr, ptr, ptr, ptr, ptr, ptr, ptr, i32, i64 }
%struct.lxb_dom_event_target = type { ptr }

; Function Attrs: nounwind uwtable
define internal i32 @lxb_html_tree_open_elements_push(ptr noundef %0, ptr noundef %1) #0 {
  %3 = alloca ptr, align 8
  %4 = alloca ptr, align 8
  store ptr %0, ptr %3, align 8
  store ptr %1, ptr %4, align 8
  %5 = load ptr, ptr %3, align 8
  %6 = getelementptr inbounds %struct.lxb_html_tree, ptr %5, i32 0, i32 4
  %7 = load ptr, ptr %6, align 8
  %8 = load ptr, ptr %4, align 8
  %9 = call i32 @lexbor_array_push(ptr noundef %7, ptr noundef %8)
  ret i32 %9
}

; Function Attrs: nounwind uwtable
define internal void @lxb_html_tree_insert_node(ptr noundef %0, ptr noundef %1, i32 noundef %2) #0 {
  %4 = alloca ptr, align 8
  %5 = alloca ptr, align 8
  %6 = alloca i32, align 4
  store ptr %0, ptr %4, align 8
  store ptr %1, ptr %5, align 8
  store i32 %2, ptr %6, align 4
  %7 = load i32, ptr %6, align 4
  %8 = icmp eq i32 %7, 1
  br i1 %8, label %9, label %12

9:                                                ; preds = %3
  %10 = load ptr, ptr %4, align 8
  %11 = load ptr, ptr %5, align 8
  call void @lxb_dom_node_insert_before_wo_events(ptr noundef %10, ptr noundef %11)
  br label %15

12:                                               ; preds = %3
  %13 = load ptr, ptr %4, align 8
  %14 = load ptr, ptr %5, align 8
  call void @lxb_dom_node_insert_child_wo_events(ptr noundef %13, ptr noundef %14)
  br label %15

15:                                               ; preds = %12, %9
  ret void
}

; Function Attrs: nounwind uwtable
define hidden ptr @lxb_html_tree_insert_foreign_element(ptr noundef %0, ptr noundef %1, i64 noundef %2) #0 {
  %4 = alloca ptr, align 8
  %5 = alloca ptr, align 8
  %6 = alloca ptr, align 8
  %7 = alloca i64, align 8
  %8 = alloca i32, align 4
  %9 = alloca ptr, align 8
  %10 = alloca ptr, align 8
  %11 = alloca i32, align 4
  store ptr %0, ptr %5, align 8
  store ptr %1, ptr %6, align 8
  store i64 %2, ptr %7, align 8
  %12 = load ptr, ptr %5, align 8
  %13 = call ptr @lxb_html_tree_appropriate_place_inserting_node(ptr noundef %12, ptr noundef null, ptr noundef %11)
  store ptr %13, ptr %9, align 8
  %14 = load i32, ptr %11, align 4
  %15 = icmp eq i32 %14, 0
  br i1 %15, label %16, label %22

16:                                               ; preds = %3
  %17 = load ptr, ptr %5, align 8
  %18 = load ptr, ptr %6, align 8
  %19 = load i64, ptr %7, align 8
  %20 = load ptr, ptr %9, align 8
  %21 = call ptr @lxb_html_tree_create_element_for_token(ptr noundef %17, ptr noundef %18, i64 noundef %19, ptr noundef %20)
  store ptr %21, ptr %10, align 8
  br label %30

22:                                               ; preds = %3
  %23 = load ptr, ptr %5, align 8
  %24 = load ptr, ptr %6, align 8
  %25 = load i64, ptr %7, align 8
  %26 = load ptr, ptr %9, align 8
  %27 = getelementptr inbounds %struct.lxb_dom_node, ptr %26, i32 0, i32 7
  %28 = load ptr, ptr %27, align 8
  %29 = call ptr @lxb_html_tree_create_element_for_token(ptr noundef %23, ptr noundef %24, i64 noundef %25, ptr noundef %28)
  store ptr %29, ptr %10, align 8
  br label %30

30:                                               ; preds = %22, %16
  %31 = load ptr, ptr %10, align 8
  %32 = icmp eq ptr %31, null
  br i1 %32, label %33, label %34

33:                                               ; preds = %30
  store ptr null, ptr %4, align 8
  br label %52

34:                                               ; preds = %30
  %35 = load ptr, ptr %9, align 8
  %36 = icmp ne ptr %35, null
  br i1 %36, label %37, label %41

37:                                               ; preds = %34
  %38 = load ptr, ptr %9, align 8
  %39 = load ptr, ptr %10, align 8
  %40 = load i32, ptr %11, align 4
  call void @lxb_html_tree_insert_node(ptr noundef %38, ptr noundef %39, i32 noundef %40)
  br label %41

41:                                               ; preds = %37, %34
  %42 = load ptr, ptr %5, align 8
  %43 = load ptr, ptr %10, align 8
  %44 = call i32 @lxb_html_tree_open_elements_push(ptr noundef %42, ptr noundef %43)
  store i32 %44, ptr %8, align 4
  %45 = load i32, ptr %8, align 4
  %46 = icmp ne i32 %45, 0
  br i1 %46, label %47, label %50

47:                                               ; preds = %41
  %48 = load ptr, ptr %10, align 8
  %49 = call ptr @lxb_html_interface_destroy(ptr noundef %48)
  store ptr %49, ptr %4, align 8
  br label %52

50:                                               ; preds = %41
  %51 = load ptr, ptr %10, align 8
  store ptr %51, ptr %4, align 8
  br label %52

52:                                               ; preds = %50, %47, %33
  %53 = load ptr, ptr %4, align 8
  ret ptr %53
}