; Function Attrs: nounwind uwtable
define hidden ptr @lxb_html_tree_insert_foreign_element(ptr noundef %0, ptr nocapture noundef readonly %1, i64 noundef %2) local_unnamed_addr #0 {
  %4 = alloca i32, align 4
  %5 = call ptr @lxb_html_tree_appropriate_place_inserting_node(ptr noundef %0, ptr noundef null, ptr noundef nonnull %4)
  %6 = load i32, ptr %4, align 4
  %7 = tail call ptr @lxb_html_tree_create_element_for_token(ptr noundef %0, ptr noundef %1, i64 noundef %2, ptr poison)
  %8 = icmp eq ptr %7, null
  br i1 %8, label %18, label %9

9:                                                ; preds = %3
  %.not = icmp eq ptr %5, null
  br i1 %.not, label %lxb_html_tree_insert_node.exit, label %10

10:                                               ; preds = %9
  %11 = icmp eq i32 %6, 1
  br i1 %11, label %12, label %13

12:                                               ; preds = %10
  tail call void @lxb_dom_node_insert_before_wo_events(ptr noundef nonnull %5, ptr noundef nonnull %7) #9
  br label %lxb_html_tree_insert_node.exit

13:                                               ; preds = %10
  tail call void @lxb_dom_node_insert_child_wo_events(ptr noundef nonnull %5, ptr noundef nonnull %7) #9
  br label %lxb_html_tree_insert_node.exit

lxb_html_tree_insert_node.exit:                   ; preds = %13, %12, %9
  %14 = getelementptr i8, ptr %0, i64 32
  %.val = load ptr, ptr %14, align 8
  %15 = tail call i32 @lexbor_array_push(ptr noundef %.val, ptr noundef nonnull %7) #9
  %.not20 = icmp eq i32 %15, 0
  br i1 %.not20, label %18, label %16

16:                                               ; preds = %lxb_html_tree_insert_node.exit
  %17 = tail call ptr @lxb_html_interface_destroy(ptr noundef nonnull %7) #9
  br label %18

18:                                               ; preds = %lxb_html_tree_insert_node.exit, %3, %16
  %.018 = phi ptr [ %17, %16 ], [ null, %3 ], [ %7, %lxb_html_tree_insert_node.exit ]
  ret ptr %.018
}